; Function Attrs: mustprogress nounwind uwtable
define internal void @_ZN6hermes2vm12_GLOBAL__N_127ContiguousVAStorageProviderD0Ev(ptr noundef nonnull align 8 dereferenceable(72) %this) unnamed_addr #3 align 2 {
entry:
  %start_.i = getelementptr inbounds i8, ptr %this, i64 40
  %0 = load ptr, ptr %start_.i, align 8
  %size_.i = getelementptr inbounds i8, ptr %this, i64 32
  %1 = load i64, ptr %size_.i, align 8
  tail call void @_ZN6hermes8oscompat18vm_release_alignedEPvm(ptr noundef %0, i64 noundef %1) #18
  %freelist_.i = getelementptr inbounds i8, ptr %this, i64 56
  %2 = load ptr, ptr %freelist_.i, align 8
  %add.ptr.i.i.i.i.i = getelementptr inbounds i8, ptr %this, i64 72
  %cmp.i.i.i.i = icmp eq ptr %2, %add.ptr.i.i.i.i.i
  br i1 %cmp.i.i.i.i, label %_ZN6hermes2vm12_GLOBAL__N_127ContiguousVAStorageProviderD2Ev.exit, label %if.then.i.i.i

if.then.i.i.i:                                    ; preds = %entry
  tail call void @free(ptr noundef %2) #18
  br label %_ZN6hermes2vm12_GLOBAL__N_127ContiguousVAStorageProviderD2Ev.exit

_ZN6hermes2vm12_GLOBAL__N_127ContiguousVAStorageProviderD2Ev.exit: ; preds = %entry, %if.then.i.i.i
  tail call void @_ZdlPv(ptr noundef nonnull %this) #20
  ret void
}